; Function Attrs: mustprogress nofree norecurse nosync nounwind willreturn memory(read, argmem: readwrite, inaccessiblemem: none) uwtable
define ptr @Fraig_NodeVecPop(ptr noundef captures(none) %0) local_unnamed_addr #10 {
  %2 = getelementptr inbounds nuw i8, ptr %0, i64 8
  %3 = load ptr, ptr %2, align 8, !tbaa !11
  %4 = getelementptr inbounds nuw i8, ptr %0, i64 4
  %5 = load i32, ptr %4, align 4, !tbaa !3
  %6 = add nsw i32 %5, -1
  store i32 %6, ptr %4, align 4, !tbaa !3
  %7 = sext i32 %6 to i64
  %8 = getelementptr inbounds ptr, ptr %3, i64 %7
  %9 = load ptr, ptr %8, align 8, !tbaa !12
  ret ptr %9
}